target datalayout = "e-m:e-p270:32:32-p271:32:32-p272:64:64-i64:64-i128:128-f80:128-n8:16:32:64-S128"
target triple = "x86_64-pc-linux-gnu"

%struct._fvalue_t = type { ptr, %union.anon.1 }
%union.anon.1 = type { %struct._protocol_value_t }
%struct._protocol_value_t = type { ptr, i32, ptr, i8 }

@.str.42 = private unnamed_addr constant [20 x i8] c"%lu overflows int64\00", align 1
@type_list = external global [48 x ptr], align 16

; Function Attrs: null_pointer_is_valid sspstrong uwtable
define internal i32 @uint64_unary_minus(ptr noundef %0, ptr noundef %1, ptr noundef %2) #0 {
  %4 = alloca i32, align 4
  %5 = alloca ptr, align 8
  %6 = alloca ptr, align 8
  %7 = alloca ptr, align 8
  store ptr %0, ptr %5, align 8
  store ptr %1, ptr %6, align 8
  store ptr %2, ptr %7, align 8
  %8 = load ptr, ptr %6, align 8
  %9 = getelementptr inbounds nuw %struct._fvalue_t, ptr %8, i32 0, i32 1
  %10 = load i64, ptr %9, align 8
  %11 = icmp ugt i64 %10, 9223372036854775807
  br i1 %11, label %12, label %22

12:                                               ; preds = %3
  %13 = load ptr, ptr %7, align 8
  %14 = icmp ne ptr %13, null
  br i1 %14, label %15, label %21

15:                                               ; preds = %12
  %16 = load ptr, ptr %6, align 8
  %17 = getelementptr inbounds nuw %struct._fvalue_t, ptr %16, i32 0, i32 1
  %18 = load i64, ptr %17, align 8
  %19 = call noalias ptr (ptr, ptr, ...) @wmem_strdup_printf(ptr noundef null, ptr noundef @.str.42, i64 noundef %18)
  %20 = load ptr, ptr %7, align 8
  store ptr %19, ptr %20, align 8
  br label %21

21:                                               ; preds = %15, %12
  store i32 4, ptr %4, align 4
  br label %34

22:                                               ; preds = %3
  br label %23

23:                                               ; preds = %22
  br label %24

24:                                               ; preds = %23
  %25 = load ptr, ptr getelementptr ([48 x ptr], ptr @type_list, i64 0, i64 19), align 8
  %26 = load ptr, ptr %5, align 8
  %27 = getelementptr inbounds nuw %struct._fvalue_t, ptr %26, i32 0, i32 0
  store ptr %25, ptr %27, align 8
  %28 = load ptr, ptr %6, align 8
  %29 = getelementptr inbounds nuw %struct._fvalue_t, ptr %28, i32 0, i32 1
  %30 = load i64, ptr %29, align 8
  %31 = sub i64 0, %30
  %32 = load ptr, ptr %5, align 8
  %33 = getelementptr inbounds nuw %struct._fvalue_t, ptr %32, i32 0, i32 1
  store i64 %31, ptr %33, align 8
  store i32 0, ptr %4, align 4
  br label %34

34:                                               ; preds = %24, %21
  %35 = load i32, ptr %4, align 4
  ret i32 %35
}