; Function Attrs: null_pointer_is_valid sspstrong uwtable
define internal range(i32 0, 5) i32 @uint64_unary_minus(ptr noundef writeonly captures(none) %0, ptr noundef readonly captures(none) %1, ptr noundef writeonly captures(address_is_null) %2) #0 {
  %4 = getelementptr inbounds nuw i8, ptr %1, i64 8
  %5 = load i64, ptr %4, align 8
  %6 = icmp slt i64 %5, 0
  br i1 %6, label %7, label %10

7:                                                ; preds = %3
  %.not = icmp eq ptr %2, null
  br i1 %.not, label %15, label %8

8:                                                ; preds = %7
  %9 = tail call noalias ptr (ptr, ptr, ...) @wmem_strdup_printf(ptr noundef null, ptr noundef nonnull @.str.42, i64 noundef %5)
  store ptr %9, ptr %2, align 8
  br label %15

10:                                               ; preds = %3
  %11 = load ptr, ptr getelementptr inbounds nuw (i8, ptr @type_list, i64 152), align 8
  store ptr %11, ptr %0, align 8
  %12 = load i64, ptr %4, align 8
  %13 = sub i64 0, %12
  %14 = getelementptr inbounds nuw i8, ptr %0, i64 8
  store i64 %13, ptr %14, align 8
  br label %15

15:                                               ; preds = %7, %8, %10
  %.0 = phi i32 [ 0, %10 ], [ 4, %8 ], [ 4, %7 ]
  ret i32 %.0
}